; Function Attrs: mustprogress nounwind uwtable
define hidden void @_ZN13ObjectSampler8scavengeEv(ptr nocapture noundef nonnull readonly align 8 dereferenceable(40) %0) local_unnamed_addr #0 align 2 {
  %2 = getelementptr inbounds i8, ptr %0, i64 8
  %3 = load ptr, ptr %2, align 8
  %4 = tail call noundef ptr @_ZNK10SampleList4lastEv(ptr noundef nonnull align 8 dereferenceable(80) %3) #11
  %.not6 = icmp eq ptr %4, null
  br i1 %.not6, label %._crit_edge, label %.lr.ph

.lr.ph:                                           ; preds = %1, %20
  %.07 = phi ptr [ %5, %20 ], [ %4, %1 ]
  %5 = load ptr, ptr %.07, align 8
  %6 = tail call noundef zeroext i1 @_ZNK12ObjectSample7is_deadEv(ptr noundef nonnull align 8 dereferenceable(117) %.07) #11
  br i1 %6, label %7, label %20

7:                                                ; preds = %.lr.ph
  tail call void @_ZN12ObjectSample7releaseEv(ptr noundef nonnull align 8 dereferenceable(117) %.07) #11
  %8 = getelementptr inbounds i8, ptr %.07, i64 8
  %9 = load ptr, ptr %8, align 8
  %.not.i = icmp eq ptr %9, null
  br i1 %.not.i, label %_ZN13ObjectSampler11remove_deadEP12ObjectSample.exit, label %10

10:                                               ; preds = %7
  %11 = load ptr, ptr %0, align 8
  tail call void @_ZN19SamplePriorityQueue6removeEP12ObjectSample(ptr noundef nonnull align 8 dereferenceable(32) %11, ptr noundef nonnull %9) #11
  %12 = getelementptr inbounds i8, ptr %.07, i64 88
  %13 = load i64, ptr %12, align 8
  %14 = getelementptr inbounds i8, ptr %9, i64 88
  %15 = load i64, ptr %14, align 8
  %16 = add i64 %15, %13
  store i64 %16, ptr %14, align 8
  %17 = load ptr, ptr %0, align 8
  tail call void @_ZN19SamplePriorityQueue4pushEP12ObjectSample(ptr noundef nonnull align 8 dereferenceable(32) %17, ptr noundef nonnull %9) #11
  br label %_ZN13ObjectSampler11remove_deadEP12ObjectSample.exit

_ZN13ObjectSampler11remove_deadEP12ObjectSample.exit: ; preds = %7, %10
  %18 = load ptr, ptr %0, align 8
  tail call void @_ZN19SamplePriorityQueue6removeEP12ObjectSample(ptr noundef nonnull align 8 dereferenceable(32) %18, ptr noundef nonnull %.07) #11
  %19 = load ptr, ptr %2, align 8
  tail call void @_ZN10SampleList7releaseEP12ObjectSample(ptr noundef nonnull align 8 dereferenceable(80) %19, ptr noundef nonnull %.07) #11
  br label %20

20:                                               ; preds = %_ZN13ObjectSampler11remove_deadEP12ObjectSample.exit, %.lr.ph
  %.not = icmp eq ptr %5, null
  br i1 %.not, label %._crit_edge, label %.lr.ph, !llvm.loop !15

._crit_edge:                                      ; preds = %20, %1
  ret void
}